target datalayout = "e-m:e-p270:32:32-p271:32:32-p272:64:64-i64:64-i128:128-f80:128-n8:16:32:64-S128"
target triple = "x86_64-pc-linux-gnu"

%"class.opencc::SimpleConverter" = type { ptr }
%"class.std::shared_ptr" = type { %"class.std::__shared_ptr" }
%"class.std::__shared_ptr" = type { ptr, %"class.std::__shared_count" }
%"class.std::__shared_count" = type { ptr }
%"struct.(anonymous namespace)::InternalData" = type { %"class.std::shared_ptr" }

@_ZTIN6opencc9ExceptionE = linkonce_odr constant { ptr, ptr } { ptr getelementptr inbounds (ptr, ptr @_ZTVN10__cxxabiv117__class_type_infoE, i64 2), ptr @_ZTSN6opencc9ExceptionE }, comdat, align 8
@_ZTISt13runtime_error = external constant ptr

; Function Attrs: mustprogress nounwind uwtable
define linkonce_odr noundef ptr @_ZNKSt12__shared_ptrIN6opencc9ConverterELN9__gnu_cxx12_Lock_policyE2EE3getEv(ptr noundef nonnull align 8 dereferenceable(16) %0) #2 comdat align 2 {
  %2 = alloca ptr, align 8
  store ptr %0, ptr %2, align 8, !tbaa !51
  %3 = load ptr, ptr %2, align 8
  %4 = getelementptr inbounds nuw %"class.std::__shared_ptr", ptr %3, i32 0, i32 0
  %5 = load ptr, ptr %4, align 8, !tbaa !53
  ret ptr %5
}

; Function Attrs: mustprogress nounwind uwtable
define linkonce_odr noundef ptr @_ZNKSt19__shared_ptr_accessIN6opencc9ConverterELN9__gnu_cxx12_Lock_policyE2ELb0ELb0EE6_M_getEv(ptr noundef nonnull align 1 dereferenceable(1) %0) #2 comdat align 2 {
  %2 = alloca ptr, align 8
  store ptr %0, ptr %2, align 8, !tbaa !27
  %3 = load ptr, ptr %2, align 8
  %4 = call noundef ptr @_ZNKSt12__shared_ptrIN6opencc9ConverterELN9__gnu_cxx12_Lock_policyE2EE3getEv(ptr noundef nonnull align 8 dereferenceable(16) %3) #4
  ret ptr %4
}

; Function Attrs: mustprogress nounwind uwtable
define linkonce_odr noundef ptr @_ZNKSt19__shared_ptr_accessIN6opencc9ConverterELN9__gnu_cxx12_Lock_policyE2ELb0ELb0EEptEv(ptr noundef nonnull align 1 dereferenceable(1) %0) #2 comdat align 2 {
  %2 = alloca ptr, align 8
  store ptr %0, ptr %2, align 8, !tbaa !27
  %3 = load ptr, ptr %2, align 8
  %4 = call noundef ptr @_ZNKSt19__shared_ptr_accessIN6opencc9ConverterELN9__gnu_cxx12_Lock_policyE2ELb0ELb0EE6_M_getEv(ptr noundef nonnull align 1 dereferenceable(1) %3) #4
  ret ptr %4
}

; Function Attrs: mustprogress uwtable
define noundef i64 @_ZNK6opencc15SimpleConverter7ConvertEPKcPc(ptr noundef nonnull align 8 dereferenceable(8) %0, ptr noundef %1, ptr noundef %2) #3 align 2 personality ptr @__gxx_personality_v0 {
  %4 = alloca ptr, align 8
  %5 = alloca ptr, align 8
  %6 = alloca ptr, align 8
  %7 = alloca ptr, align 8
  %8 = alloca ptr, align 8
  %9 = alloca i32, align 4
  %10 = alloca ptr, align 8
  store ptr %0, ptr %4, align 8, !tbaa !12
  store ptr %1, ptr %5, align 8, !tbaa !10
  store ptr %2, ptr %6, align 8, !tbaa !10
  %11 = load ptr, ptr %4, align 8
  call void @llvm.lifetime.start.p0(i64 8, ptr %7) #4
  %12 = getelementptr inbounds nuw %"class.opencc::SimpleConverter", ptr %11, i32 0, i32 0
  %13 = load ptr, ptr %12, align 8, !tbaa !19
  store ptr %13, ptr %7, align 8, !tbaa !25
  %14 = load ptr, ptr %7, align 8, !tbaa !25
  %15 = getelementptr inbounds nuw %"struct.(anonymous namespace)::InternalData", ptr %14, i32 0, i32 0
  %16 = call noundef ptr @_ZNKSt19__shared_ptr_accessIN6opencc9ConverterELN9__gnu_cxx12_Lock_policyE2ELb0ELb0EEptEv(ptr noundef nonnull align 1 dereferenceable(1) %15) #4
  %17 = load ptr, ptr %5, align 8, !tbaa !10
  %18 = load ptr, ptr %6, align 8, !tbaa !10
  %19 = invoke noundef i64 @_ZNK6opencc9Converter7ConvertEPKcPc(ptr noundef nonnull align 8 dereferenceable(64) %16, ptr noundef %17, ptr noundef %18)
          to label %20 unwind label %21

20:                                               ; preds = %3
  call void @llvm.lifetime.end.p0(i64 8, ptr %7) #4
  ret i64 %19

21:                                               ; preds = %3
  %22 = landingpad { ptr, i32 }
          cleanup
          catch ptr @_ZTIN6opencc9ExceptionE
  %23 = extractvalue { ptr, i32 } %22, 0
  store ptr %23, ptr %8, align 8
  %24 = extractvalue { ptr, i32 } %22, 1
  store i32 %24, ptr %9, align 4
  call void @llvm.lifetime.end.p0(i64 8, ptr %7) #4
  br label %25

25:                                               ; preds = %21
  %26 = load i32, ptr %9, align 4
  %27 = call i32 @llvm.eh.typeid.for.p0(ptr @_ZTIN6opencc9ExceptionE) #4
  %28 = icmp eq i32 %26, %27
  br i1 %28, label %29, label %50

29:                                               ; preds = %25
  call void @llvm.lifetime.start.p0(i64 8, ptr %10) #4
  %30 = load ptr, ptr %8, align 8
  %31 = call ptr @__cxa_begin_catch(ptr %30) #4
  store ptr %31, ptr %10, align 8
  %32 = call ptr @__cxa_allocate_exception(i64 16) #4
  %33 = load ptr, ptr %10, align 8, !tbaa !21
  %34 = load ptr, ptr %33, align 8, !tbaa !23
  %35 = getelementptr inbounds ptr, ptr %34, i64 2
  %36 = load ptr, ptr %35, align 8
  %37 = call noundef ptr %36(ptr noundef nonnull align 8 dereferenceable(40) %33) #4
  invoke void @_ZNSt13runtime_errorC1EPKc(ptr noundef nonnull align 8 dereferenceable(16) %32, ptr noundef %37)
          to label %38 unwind label %39

38:                                               ; preds = %29
  invoke void @__cxa_throw(ptr %32, ptr @_ZTISt13runtime_error, ptr @_ZNSt13runtime_errorD1Ev) #20
          to label %58 unwind label %43

39:                                               ; preds = %29
  %40 = landingpad { ptr, i32 }
          cleanup
  %41 = extractvalue { ptr, i32 } %40, 0
  store ptr %41, ptr %8, align 8
  %42 = extractvalue { ptr, i32 } %40, 1
  store i32 %42, ptr %9, align 4
  call void @__cxa_free_exception(ptr %32) #4
  br label %47

43:                                               ; preds = %38
  %44 = landingpad { ptr, i32 }
          cleanup
  %45 = extractvalue { ptr, i32 } %44, 0
  store ptr %45, ptr %8, align 8
  %46 = extractvalue { ptr, i32 } %44, 1
  store i32 %46, ptr %9, align 4
  br label %47

47:                                               ; preds = %43, %39
  invoke void @__cxa_end_catch()
          to label %48 unwind label %55

48:                                               ; preds = %47
  call void @llvm.lifetime.end.p0(i64 8, ptr %10) #4
  br label %50

49:                                               ; No predecessors!
  unreachable

50:                                               ; preds = %48, %25
  %51 = load ptr, ptr %8, align 8
  %52 = load i32, ptr %9, align 4
  %53 = insertvalue { ptr, i32 } poison, ptr %51, 0
  %54 = insertvalue { ptr, i32 } %53, i32 %52, 1
  resume { ptr, i32 } %54

55:                                               ; preds = %47
  %56 = landingpad { ptr, i32 }
          catch ptr null
  %57 = extractvalue { ptr, i32 } %56, 0
  call void @__clang_call_terminate(ptr %57) #21
  unreachable

58:                                               ; preds = %38
  unreachable
}