; Function Attrs: mustprogress uwtable
define noundef i64 @_ZNK6opencc15SimpleConverter7ConvertEPKcPc(ptr noundef nonnull readonly align 8 captures(none) dereferenceable(8) %0, ptr noundef %1, ptr noundef %2) local_unnamed_addr #3 align 2 personality ptr @__gxx_personality_v0 {
  %4 = load ptr, ptr %0, align 8, !tbaa !34
  %5 = load ptr, ptr %4, align 8, !tbaa !20
  %6 = invoke noundef i64 @_ZNK6opencc9Converter7ConvertEPKcPc(ptr noundef nonnull align 8 dereferenceable(64) %5, ptr noundef %1, ptr noundef %2)
          to label %7 unwind label %8

7:                                                ; preds = %3
  ret i64 %6

8:                                                ; preds = %3
  %9 = landingpad { ptr, i32 }
          cleanup
          catch ptr @_ZTIN6opencc9ExceptionE
  %10 = extractvalue { ptr, i32 } %9, 1
  %11 = tail call i32 @llvm.eh.typeid.for.p0(ptr nonnull @_ZTIN6opencc9ExceptionE) #21
  %12 = icmp eq i32 %10, %11
  br i1 %12, label %13, label %27

13:                                               ; preds = %8
  %14 = extractvalue { ptr, i32 } %9, 0
  %15 = tail call ptr @__cxa_begin_catch(ptr %14) #21
  %16 = tail call ptr @__cxa_allocate_exception(i64 16) #21
  %17 = load ptr, ptr %15, align 8, !tbaa !31
  %18 = getelementptr inbounds nuw i8, ptr %17, i64 16
  %19 = load ptr, ptr %18, align 8
  %20 = tail call noundef ptr %19(ptr noundef nonnull align 8 dereferenceable(40) %15) #21
  invoke void @_ZNSt13runtime_errorC1EPKc(ptr noundef nonnull align 8 dereferenceable(16) %16, ptr noundef %20)
          to label %21 unwind label %22

21:                                               ; preds = %13
  invoke void @__cxa_throw(ptr nonnull %16, ptr nonnull @_ZTISt13runtime_error, ptr nonnull @_ZNSt13runtime_errorD1Ev) #24
          to label %31 unwind label %24

22:                                               ; preds = %13
  %23 = landingpad { ptr, i32 }
          cleanup
  tail call void @__cxa_free_exception(ptr nonnull %16) #21
  br label %26

24:                                               ; preds = %21
  %25 = landingpad { ptr, i32 }
          cleanup
  br label %26

26:                                               ; preds = %24, %22
  %.pn = phi { ptr, i32 } [ %25, %24 ], [ %23, %22 ]
  invoke void @__cxa_end_catch()
          to label %27 unwind label %28

27:                                               ; preds = %26, %8
  %.merged = phi { ptr, i32 } [ %9, %8 ], [ %.pn, %26 ]
  resume { ptr, i32 } %.merged

28:                                               ; preds = %26
  %29 = landingpad { ptr, i32 }
          catch ptr null
  %30 = extractvalue { ptr, i32 } %29, 0
  tail call void @__clang_call_terminate(ptr %30) #25
  unreachable

31:                                               ; preds = %21
  unreachable
}